; Function Attrs: nounwind uwtable
define dso_local range(i32 0, 9206) i32 @try_grow_buf_remaining(ptr noundef %0, i32 noundef %1) local_unnamed_addr #0 {
  %3 = getelementptr inbounds nuw i8, ptr %0, i64 16
  %4 = load i32, ptr %3, align 8
  %5 = getelementptr inbounds nuw i8, ptr %0, i64 20
  %6 = load i32, ptr %5, align 4
  %7 = sub i32 %4, %6
  %8 = icmp ult i32 %7, %1
  br i1 %8, label %9, label %try_grow_buf.exit

9:                                                ; preds = %2
  %10 = add i32 %4, 16384
  %11 = zext i32 %10 to i64
  %12 = icmp ugt i32 %1, 16383
  %narrow.i = select i1 %12, i32 %1, i32 0
  %13 = zext i32 %narrow.i to i64
  %.0.i = add nuw nsw i64 %11, %13
  %14 = getelementptr inbounds nuw i8, ptr %0, i64 24
  %15 = load i8, ptr %14, align 8, !range !8, !noundef !9
  %16 = trunc nuw i8 %15 to i1
  br i1 %16, label %try_grow_buf.exit, label %17

17:                                               ; preds = %9
  %18 = getelementptr inbounds nuw i8, ptr %0, i64 25
  %19 = load i8, ptr %18, align 1, !range !8, !noundef !9
  %20 = trunc nuw i8 %19 to i1
  br i1 %20, label %try_grow_buf.exit, label %21

21:                                               ; preds = %17
  %22 = icmp samesign ugt i64 %.0.i, 4294901760
  br i1 %22, label %23, label %25

23:                                               ; preds = %21
  %24 = tail call i32 (ptr, ...) @error(ptr noundef nonnull @.str.8, ptr noundef nonnull @__func__.try_grow_buf, i64 noundef %.0.i, i32 noundef -65536) #14
  br label %try_grow_buf.exit

25:                                               ; preds = %21
  %26 = getelementptr inbounds nuw i8, ptr %0, i64 8
  %27 = tail call ptr @slurm_xrecalloc(ptr noundef nonnull %26, i64 noundef 1, i64 noundef %.0.i, i1 noundef zeroext true, i1 noundef zeroext true, ptr noundef nonnull @.str.1, i32 noundef 238, ptr noundef nonnull @__func__.try_grow_buf) #14
  %.not.i = icmp eq ptr %27, null
  br i1 %.not.i, label %try_grow_buf.exit, label %28

28:                                               ; preds = %25
  %29 = trunc nuw i64 %.0.i to i32
  store i32 %29, ptr %3, align 8
  br label %try_grow_buf.exit

try_grow_buf.exit:                                ; preds = %28, %25, %23, %17, %9, %2
  %.0 = phi i32 [ 0, %2 ], [ 9205, %23 ], [ 0, %28 ], [ 22, %17 ], [ 22, %9 ], [ 12, %25 ]
  ret i32 %.0
}